; Function Attrs: mustprogress nofree norecurse nosync nounwind willreturn memory(argmem: readwrite) uwtable
define i32 @Gia_ObjRecognizeMuxLits(ptr noundef readonly captures(none) %0, ptr noundef %1, ptr noundef writeonly captures(none) initializes((0, 4)) %2, ptr noundef writeonly captures(none) initializes((0, 4)) %3) local_unnamed_addr #17 {
  %5 = alloca ptr, align 8
  %6 = alloca ptr, align 8
  %7 = call ptr @Gia_ObjRecognizeMux(ptr noundef %1, ptr noundef nonnull %5, ptr noundef nonnull %6)
  %8 = load ptr, ptr %5, align 8
  %9 = getelementptr i8, ptr %0, i64 32
  %.val = load ptr, ptr %9, align 8
  %10 = ptrtoint ptr %8 to i64
  %11 = and i64 %10, -2
  %12 = ptrtoint ptr %.val to i64
  %13 = sub i64 %11, %12
  %14 = sdiv exact i64 %13, 12
  %15 = trunc i64 %14 to i32
  %16 = trunc i64 %10 to i32
  %17 = and i32 %16, 1
  %18 = shl nsw i32 %15, 1
  %19 = or disjoint i32 %18, %17
  store i32 %19, ptr %2, align 4
  %20 = load ptr, ptr %6, align 8
  %.val7 = load ptr, ptr %9, align 8
  %21 = ptrtoint ptr %20 to i64
  %22 = and i64 %21, -2
  %23 = ptrtoint ptr %.val7 to i64
  %24 = sub i64 %22, %23
  %25 = sdiv exact i64 %24, 12
  %26 = trunc i64 %25 to i32
  %27 = trunc i64 %21 to i32
  %28 = and i32 %27, 1
  %29 = shl nsw i32 %26, 1
  %30 = or disjoint i32 %29, %28
  store i32 %30, ptr %3, align 4
  %.val8 = load ptr, ptr %9, align 8
  %31 = ptrtoint ptr %7 to i64
  %32 = and i64 %31, -2
  %33 = ptrtoint ptr %.val8 to i64
  %34 = sub i64 %32, %33
  %35 = sdiv exact i64 %34, 12
  %36 = trunc i64 %35 to i32
  %37 = trunc i64 %31 to i32
  %38 = and i32 %37, 1
  %39 = shl nsw i32 %36, 1
  %40 = or disjoint i32 %39, %38
  ret i32 %40
}